; Function Attrs: mustprogress uwtable
define hidden void @_ZN7nanogui10ColorWheelC2EPNS_6WidgetERKNS_5ColorE(ptr noundef nonnull align 8 dereferenceable(192) %0, ptr noundef %1, ptr nocapture noundef nonnull readonly align 4 dereferenceable(16) %2) unnamed_addr #0 align 2 personality ptr @__gxx_personality_v0 {
  tail call void @_ZN7nanogui6WidgetC2EPS0_(ptr noundef nonnull align 8 dereferenceable(140) %0, ptr noundef %1)
  store ptr getelementptr inbounds ({ [17 x ptr] }, ptr @_ZTVN7nanogui10ColorWheelE, i64 0, i32 0, i64 2), ptr %0, align 8
  %4 = getelementptr inbounds i8, ptr %0, i64 152
  store i32 0, ptr %4, align 8
  %5 = getelementptr inbounds i8, ptr %0, i64 160
  tail call void @llvm.memset.p0.i64(ptr noundef nonnull align 8 dereferenceable(32) %5, i8 0, i64 32, i1 false)
  tail call void @_ZN7nanogui10ColorWheel9set_colorERKNS_5ColorE(ptr noundef nonnull align 8 dereferenceable(192) %0, ptr noundef nonnull align 4 dereferenceable(16) %2)
  ret void
}